; Function Attrs: mustprogress nounwind uwtable
define internal void @_ZNK12_GLOBAL__N_126AArch64InstructionSelector15renderUbsanTrapERN4llvm19MachineInstrBuilderERKNS1_12MachineInstrEi(ptr nocapture nonnull readnone align 8 %0, ptr nocapture noundef nonnull readonly align 8 dereferenceable(16) %1, ptr nocapture noundef nonnull readonly align 8 dereferenceable(70) %2, i32 %3) #0 align 2 {
  %5 = alloca %"class.llvm::MachineOperand", align 8
  %6 = getelementptr inbounds nuw i8, ptr %2, i64 32
  %7 = load ptr, ptr %6, align 8
  %8 = getelementptr inbounds nuw i8, ptr %7, i64 16
  %9 = load i64, ptr %8, align 8
  %10 = or i64 %9, 21760
  call void @llvm.lifetime.start.p0(i64 32, ptr nonnull %5)
  %11 = getelementptr inbounds nuw i8, ptr %1, i64 8
  %12 = load ptr, ptr %11, align 8
  %13 = load ptr, ptr %1, align 8
  store i32 1, ptr %5, align 8, !alias.scope !316
  %14 = getelementptr inbounds nuw i8, ptr %5, i64 8
  store ptr null, ptr %14, align 8, !alias.scope !316
  %15 = getelementptr inbounds nuw i8, ptr %5, i64 16
  store i64 %10, ptr %15, align 8, !alias.scope !316
  call void @_ZN4llvm12MachineInstr10addOperandERNS_15MachineFunctionERKNS_14MachineOperandE(ptr noundef nonnull align 8 dereferenceable(70) %12, ptr noundef nonnull align 8 dereferenceable(1041) %13, ptr noundef nonnull align 8 dereferenceable(32) %5) #24
  call void @llvm.lifetime.end.p0(i64 32, ptr nonnull %5)
  ret void
}